Certificate:
    Data:
        Version: 3 (0x2)
        Serial Number:
            8e:90:26:bf:89:99:ae:12:c7:57:a6:71:38:b9:3d:83
        Signature Algorithm: sha256WithRSAEncryption
        Issuer: CN=trueffect.com
        Validity
            Not Before: Jun 23 03:55:51 2016 GMT
            Not After : Jun 21 03:55:51 2026 GMT
        Subject: CN=vincent
        Subject Public Key Info:
            Public Key Algorithm: rsaEncryption
            RSA Public Key: (2048 bit)
                Modulus (2048 bit):
                    00:c6:35:91:62:7b:43:bd:64:83:f1:b8:d7:6b:57:
                    d6:5c:4a:d3:47:74:d9:3d:f3:23:7d:ed:78:db:70:
                    e7:31:7f:bd:e4:82:00:e1:b6:75:78:e5:57:a4:79:
                    4f:27:46:1b:53:93:94:2e:f7:19:e6:d7:56:03:b7:
                    c0:d4:de:84:98:e5:07:4f:ff:bd:bc:f2:9c:43:f4:
                    34:fc:65:2f:ef:db:5a:93:3b:cf:a2:d4:34:cb:6d:
                    92:cd:7b:fc:f4:aa:a2:95:9a:bf:cd:82:f6:3d:43:
                    f8:f4:a9:63:61:73:66:12:4a:44:96:1d:14:00:a8:
                    c7:18:32:59:9a:06:cf:1c:a8:e1:b0:e2:26:d4:ee:
                    5b:ac:3e:ba:e9:db:af:c5:c6:51:c2:a8:04:2c:42:
                    43:2f:f0:a4:32:7f:76:f4:81:ca:90:4c:33:25:12:
                    54:6b:1a:b6:26:8c:81:5e:b7:ae:44:98:c0:41:16:
                    9f:ff:d8:ec:d6:67:4f:72:23:3a:0a:c3:fc:f6:f3:
                    66:68:c9:5c:4e:a0:56:4a:84:13:40:76:32:ac:c6:
                    51:ff:17:20:76:2b:4c:8c:34:ba:ca:54:9c:9a:3f:
                    50:0c:d4:84:61:c3:65:ed:85:1b:cf:91:b2:2b:8f:
                    23:48:e2:bd:69:43:d9:fd:1a:6f:bc:d9:f3:d6:8b:
                    dd:8f
                Exponent: 65537 (0x10001)
        X509v3 extensions:
            X509v3 Basic Constraints: 
                CA:FALSE
            X509v3 Subject Key Identifier: 
                F1:D5:FB:82:67:99:22:87:52:D2:CE:34:24:AC:71:89:F3:C4:24:B5
            X509v3 Authority Key Identifier: 
                keyid:76:D5:F5:86:79:17:67:85:DD:32:78:37:15:57:76:B2:E8:B5:80:9B
                DirName:/CN=trueffect.com
                serial:DE:94:11:17:B4:07:5F:8D

            X509v3 Extended Key Usage: 
                TLS Web Client Authentication
            X509v3 Key Usage: 
                Digital Signature
    Signature Algorithm: sha256WithRSAEncryption
        a6:19:8e:5f:7b:68:0b:f4:04:f0:63:36:62:5e:ac:71:52:65:
        7d:b9:f3:c9:06:96:6c:89:2e:af:f4:13:6f:dc:37:24:f0:8b:
        26:2e:d0:7b:3e:f2:85:d5:bd:d8:c9:15:17:d5:fd:05:29:37:
        15:ea:43:b8:1b:79:d4:d7:0d:c1:1f:ad:33:c5:58:f5:40:ed:
        31:17:f8:80:fe:5b:bd:5f:9c:a9:6a:fb:9a:6d:3e:21:f1:f3:
        03:9b:43:98:b8:4c:ff:bf:98:07:50:48:af:93:d8:e8:13:c7:
        ef:6d:1a:67:93:37:90:b1:89:f7:20:d0:1d:ca:c0:b2:42:0f:
        21:7c:60:21:a4:7c:93:0b:4a:d8:11:8f:ab:36:34:3e:e1:94:
        4f:08:4c:45:fc:7c:43:ce:a1:d1:d7:f3:e3:c0:a2:d2:37:3a:
        71:75:9a:ee:2f:85:9b:b6:0f:8d:4e:f0:35:a3:7f:6d:c7:52:
        aa:88:cd:4a:24:09:86:4b:97:ad:26:a3:6c:9d:5f:80:8a:c9:
        37:e4:57:b6:e8:94:9c:4d:e0:0a:50:20:33:30:26:bb:a6:8a:
        b2:89:48:c7:ed:6f:ae:56:31:57:5c:76:50:22:47:96:fe:04:
        be:0c:6e:6e:89:d8:3b:d9:3d:5c:75:a5:bf:88:33:84:c0:e5:
        52:09:99:7f
-----BEGIN CERTIFICATE-----
MIIDTzCCAjegAwIBAgIRAI6QJr+Jma4Sx1emcTi5PYMwDQYJKoZIhvcNAQELBQAw
GDEWMBQGA1UEAwwNdHJ1ZWZmZWN0LmNvbTAeFw0xNjA2MjMwMzU1NTFaFw0yNjA2
MjEwMzU1NTFaMBIxEDAOBgNVBAMMB3ZpbmNlbnQwggEiMA0GCSqGSIb3DQEBAQUA
A4IBDwAwggEKAoIBAQDGNZFie0O9ZIPxuNdrV9ZcStNHdNk98yN97XjbcOcxf73k
ggDhtnV45VekeU8nRhtTk5Qu9xnm11YDt8DU3oSY5QdP/7288pxD9DT8ZS/v21qT
O8+i1DTLbZLNe/z0qqKVmr/NgvY9Q/j0qWNhc2YSSkSWHRQAqMcYMlmaBs8cqOGw
4ibU7lusPrrp26/FxlHCqAQsQkMv8KQyf3b0gcqQTDMlElRrGrYmjIFet65EmMBB
Fp//2OzWZ09yIzoKw/z282ZoyVxOoFZKhBNAdjKsxlH/FyB2K0yMNLrKVJyaP1AM
1IRhw2XthRvPkbIrjyNI4r1pQ9n9Gm+82fPWi92PAgMBAAGjgZkwgZYwCQYDVR0T
BAIwADAdBgNVHQ4EFgQU8dX7gmeZIodS0s40JKxxifPEJLUwSAYDVR0jBEEwP4AU
dtX1hnkXZ4XdMng3FVd2sui1gJuhHKQaMBgxFjAUBgNVBAMMDXRydWVmZmVjdC5j
b22CCQDelBEXtAdfjTATBgNVHSUEDDAKBggrBgEFBQcDAjALBgNVHQ8EBAMCB4Aw
DQYJKoZIhvcNAQELBQADggEBAKYZjl97aAv0BPBjNmJerHFSZX2588kGlmyJLq/0
E2/cNyTwiyYu0Hs+8oXVvdjJFRfV/QUpNxXqQ7gbedTXDcEfrTPFWPVA7TEX+ID+
W71fnKlq+5ptPiHx8wObQ5i4TP+/mAdQSK+T2OgTx+9tGmeTN5Cxifcg0B3KwLJC
DyF8YCGkfJMLStgRj6s2ND7hlE8ITEX8fEPOodHX8+PAotI3OnF1mu4vhZu2D41O
8DWjf23HUqqIzUokCYZLl60mo2ydX4CKyTfkV7bolJxN4ApQIDMwJrumirKJSMft
b65WMVdcdlAiR5b+BL4Mbm6J2DvZPVx1pb+IM4TA5VIJmX8=
-----END CERTIFICATE-----
