Certificate:
    Data:
        Version: 3 (0x2)
        Serial Number:
            a1:55:9b:ff:31:64:ac:e9:77:1e:0b:20:48:68:f7:68
        Signature Algorithm: sha256WithRSAEncryption
        Issuer: CN=trueffect.com
        Validity
            Not Before: Jun 22 18:03:24 2016 GMT
            Not After : Jun 20 18:03:24 2026 GMT
        Subject: CN=server
        Subject Public Key Info:
            Public Key Algorithm: rsaEncryption
            RSA Public Key: (2048 bit)
                Modulus (2048 bit):
                    00:c3:17:d9:9b:07:59:70:1c:a9:86:65:62:c1:64:
                    52:72:17:c6:03:86:57:a7:6e:68:7d:dc:4e:22:2b:
                    4c:0b:05:5f:90:e6:e2:8d:b2:b8:68:d1:84:7d:8e:
                    73:1f:3c:74:a9:20:0f:d5:fe:fe:bc:ea:8f:a5:15:
                    77:1f:4f:cd:4e:6c:7d:4f:b8:41:f5:66:59:0a:ca:
                    0d:59:77:f7:52:94:62:89:db:dd:cb:8e:a9:54:34:
                    cc:07:46:78:d1:1e:0c:10:61:8f:c7:c7:4a:3a:72:
                    a8:04:48:81:32:c6:0a:41:cd:af:4c:00:b5:1b:f1:
                    76:ae:7c:55:7b:2e:d3:35:22:b2:cc:ea:69:f5:54:
                    f8:6e:ab:27:a1:64:e2:2a:10:71:cd:61:59:6b:1b:
                    fc:91:fb:72:73:2a:f8:8b:04:a9:c1:b2:e8:21:ac:
                    68:30:46:6b:55:a0:6d:13:8e:4e:86:01:f5:de:24:
                    4f:87:6b:57:1f:b1:dd:c9:e2:04:b4:b6:01:65:50:
                    c9:33:83:54:c7:dc:96:24:6c:d7:9b:53:56:f6:98:
                    e4:73:ec:6e:91:e2:c4:75:0c:2e:e1:65:5d:d7:a7:
                    40:83:c9:2e:f8:cf:69:b8:06:99:3c:11:e6:e1:0f:
                    1f:f9:1c:51:ab:da:eb:c7:5a:66:8a:9b:9c:18:94:
                    99:e5
                Exponent: 65537 (0x10001)
        X509v3 extensions:
            X509v3 Basic Constraints: 
                CA:FALSE
            X509v3 Subject Key Identifier: 
                46:14:30:08:ED:82:87:04:A6:89:81:C6:F4:C5:8E:49:72:C3:A2:97
            X509v3 Authority Key Identifier: 
                keyid:76:D5:F5:86:79:17:67:85:DD:32:78:37:15:57:76:B2:E8:B5:80:9B
                DirName:/CN=trueffect.com
                serial:DE:94:11:17:B4:07:5F:8D

            X509v3 Extended Key Usage: 
                TLS Web Server Authentication
            X509v3 Key Usage: 
                Digital Signature, Key Encipherment
    Signature Algorithm: sha256WithRSAEncryption
        aa:fa:d0:70:fd:04:7b:65:4d:ef:77:b1:fd:4d:25:63:75:f8:
        1d:d8:e4:29:56:89:ce:bd:e6:7f:d2:a7:da:c9:61:27:d4:17:
        ac:da:26:cc:2a:78:c3:39:23:21:40:14:fb:ae:a2:dc:e3:2c:
        c8:7a:d2:3e:27:9a:3b:f6:2d:00:58:04:43:7f:7a:4b:84:f7:
        8b:05:ab:6d:6f:69:c5:46:23:d8:ec:62:67:34:23:bc:57:04:
        0c:95:34:43:1c:2e:57:0a:5e:01:d0:44:a1:ff:48:1f:81:bd:
        71:06:71:8d:f2:11:fa:88:33:33:5a:ff:fe:23:00:45:0c:4f:
        6d:fc:ba:85:71:0e:9c:36:b9:c8:43:9c:d7:ea:50:18:11:99:
        f4:a8:bc:12:79:99:f1:dc:a6:00:65:4a:58:b8:fd:4f:7b:e7:
        a5:cb:33:c7:5e:f2:d9:58:3d:ef:47:df:bf:a5:1c:03:f5:b4:
        00:14:b0:62:c2:d1:4d:67:1d:f0:6f:9e:5d:47:3b:ec:6b:5e:
        64:c8:a2:5d:a6:65:b0:52:b8:8f:16:6e:99:ef:54:0a:97:ff:
        d6:78:42:f2:47:f3:37:bf:40:76:42:07:dd:74:3d:72:32:96:
        27:99:f3:20:ae:53:67:28:18:bb:0c:37:4f:62:f9:cb:51:ea:
        b2:2c:b5:d2
-----BEGIN CERTIFICATE-----
MIIDTjCCAjagAwIBAgIRAKFVm/8xZKzpdx4LIEho92gwDQYJKoZIhvcNAQELBQAw
GDEWMBQGA1UEAwwNdHJ1ZWZmZWN0LmNvbTAeFw0xNjA2MjIxODAzMjRaFw0yNjA2
MjAxODAzMjRaMBExDzANBgNVBAMMBnNlcnZlcjCCASIwDQYJKoZIhvcNAQEBBQAD
ggEPADCCAQoCggEBAMMX2ZsHWXAcqYZlYsFkUnIXxgOGV6duaH3cTiIrTAsFX5Dm
4o2yuGjRhH2Ocx88dKkgD9X+/rzqj6UVdx9PzU5sfU+4QfVmWQrKDVl391KUYonb
3cuOqVQ0zAdGeNEeDBBhj8fHSjpyqARIgTLGCkHNr0wAtRvxdq58VXsu0zUisszq
afVU+G6rJ6Fk4ioQcc1hWWsb/JH7cnMq+IsEqcGy6CGsaDBGa1WgbROOToYB9d4k
T4drVx+x3cniBLS2AWVQyTODVMfcliRs15tTVvaY5HPsbpHixHUMLuFlXdenQIPJ
LvjPabgGmTwR5uEPH/kcUava68daZoqbnBiUmeUCAwEAAaOBmTCBljAJBgNVHRME
AjAAMB0GA1UdDgQWBBRGFDAI7YKHBKaJgcb0xY5JcsOilzBIBgNVHSMEQTA/gBR2
1fWGeRdnhd0yeDcVV3ay6LWAm6EcpBowGDEWMBQGA1UEAwwNdHJ1ZWZmZWN0LmNv
bYIJAN6UERe0B1+NMBMGA1UdJQQMMAoGCCsGAQUFBwMBMAsGA1UdDwQEAwIFoDAN
BgkqhkiG9w0BAQsFAAOCAQEAqvrQcP0Ee2VN73ex/U0lY3X4HdjkKVaJzr3mf9Kn
2slhJ9QXrNomzCp4wzkjIUAU+66i3OMsyHrSPieaO/YtAFgEQ396S4T3iwWrbW9p
xUYj2OxiZzQjvFcEDJU0QxwuVwpeAdBEof9IH4G9cQZxjfIR+ogzM1r//iMARQxP
bfy6hXEOnDa5yEOc1+pQGBGZ9Ki8EnmZ8dymAGVKWLj9T3vnpcszx17y2Vg970ff
v6UcA/W0ABSwYsLRTWcd8G+eXUc77GteZMiiXaZlsFK4jxZume9UCpf/1nhC8kfz
N79AdkIH3XQ9cjKWJ5nzIK5TZygYuww3T2L5y1Hqsiy10g==
-----END CERTIFICATE-----
